; Function Attrs: mustprogress ssp uwtable
define internal fastcc void @"_ZNO8pybind116detail15argument_loaderIJRKN6open3d13visualization22SelectionPolygonVolumeERKNS2_8geometry12TriangleMeshEEE4callISt10shared_ptrIS8_ENS0_9void_typeERZNS3_40pybind_visualization_utility_definitionsERNS_7module_EE3$_1EENSt9enable_ifIXntsr3std7is_voidIT_EE5valueESL_E4typeEOT1_"(ptr dead_on_unwind noalias nonnull writable align 8 %0, ptr %.16.val, ptr %.40.val) unnamed_addr #7 align 2 personality ptr @__gxx_personality_v0 !type !1825 {
  %.not.i.i.i = icmp eq ptr %.40.val, null
  br i1 %.not.i.i.i, label %2, label %_ZN8pybind116detail7cast_opIRKN6open3d13visualization22SelectionPolygonVolumeEEENS0_11type_casterINS0_14intrinsic_typeIT_E4typeEvE12cast_op_typeINSt20add_rvalue_referenceIS9_E4typeEEEOSC_.exit.i

2:                                                ; preds = %1
  %3 = tail call ptr @__cxa_allocate_exception(i64 16) #34, !noalias !1827
  invoke void @_ZN8pybind1120reference_cast_errorC2Ev(ptr noundef nonnull align 8 dereferenceable(16) %3)
          to label %4 unwind label %5, !noalias !1827

4:                                                ; preds = %2
  tail call void @__cxa_throw(ptr nonnull %3, ptr nonnull @_ZTIN8pybind1120reference_cast_errorE, ptr nonnull @_ZNSt13runtime_errorD2Ev) #36, !noalias !1827
  unreachable

common.resume.i:                                  ; preds = %10, %5
  %.sink.i = phi ptr [ %8, %10 ], [ %3, %5 ]
  %common.resume.op.i = phi { ptr, i32 } [ %11, %10 ], [ %6, %5 ]
  tail call void @__cxa_free_exception(ptr nonnull %.sink.i) #34, !noalias !1827
  resume { ptr, i32 } %common.resume.op.i

5:                                                ; preds = %2
  %6 = landingpad { ptr, i32 }
          cleanup
  br label %common.resume.i

_ZN8pybind116detail7cast_opIRKN6open3d13visualization22SelectionPolygonVolumeEEENS0_11type_casterINS0_14intrinsic_typeIT_E4typeEvE12cast_op_typeINSt20add_rvalue_referenceIS9_E4typeEEEOSC_.exit.i: ; preds = %1
  %.not.i.i2.i = icmp eq ptr %.16.val, null
  br i1 %.not.i.i2.i, label %7, label %"_ZNO8pybind116detail15argument_loaderIJRKN6open3d13visualization22SelectionPolygonVolumeERKNS2_8geometry12TriangleMeshEEE9call_implISt10shared_ptrIS8_ERZNS3_40pybind_visualization_utility_definitionsERNS_7module_EE3$_1JLm0ELm1EENS0_9void_typeEEET_OT0_St16integer_sequenceImJXspT1_EEEOT2_.exit"

7:                                                ; preds = %_ZN8pybind116detail7cast_opIRKN6open3d13visualization22SelectionPolygonVolumeEEENS0_11type_casterINS0_14intrinsic_typeIT_E4typeEvE12cast_op_typeINSt20add_rvalue_referenceIS9_E4typeEEEOSC_.exit.i
  %8 = tail call ptr @__cxa_allocate_exception(i64 16) #34, !noalias !1827
  invoke void @_ZN8pybind1120reference_cast_errorC2Ev(ptr noundef nonnull align 8 dereferenceable(16) %8)
          to label %9 unwind label %10, !noalias !1827

9:                                                ; preds = %7
  tail call void @__cxa_throw(ptr nonnull %8, ptr nonnull @_ZTIN8pybind1120reference_cast_errorE, ptr nonnull @_ZNSt13runtime_errorD2Ev) #36, !noalias !1827
  unreachable

10:                                               ; preds = %7
  %11 = landingpad { ptr, i32 }
          cleanup
  br label %common.resume.i

"_ZNO8pybind116detail15argument_loaderIJRKN6open3d13visualization22SelectionPolygonVolumeERKNS2_8geometry12TriangleMeshEEE9call_implISt10shared_ptrIS8_ERZNS3_40pybind_visualization_utility_definitionsERNS_7module_EE3$_1JLm0ELm1EENS0_9void_typeEEET_OT0_St16integer_sequenceImJXspT1_EEEOT2_.exit": ; preds = %_ZN8pybind116detail7cast_opIRKN6open3d13visualization22SelectionPolygonVolumeEEENS0_11type_casterINS0_14intrinsic_typeIT_E4typeEvE12cast_op_typeINSt20add_rvalue_referenceIS9_E4typeEEEOSC_.exit.i
  tail call void @_ZNK6open3d13visualization22SelectionPolygonVolume16CropTriangleMeshERKNS_8geometry12TriangleMeshE(ptr dead_on_unwind nonnull writable sret(%"class.std::shared_ptr.563") align 8 %0, ptr noundef nonnull align 8 dereferenceable(80) %.40.val, ptr noundef nonnull align 8 dereferenceable(288) %.16.val)
  ret void
}